; Function Attrs: nofree norecurse nosync nounwind memory(argmem: readwrite) uwtable
define internal void @loop_filter_v_88_16_c(ptr noundef captures(none) %0, i64 noundef %1, i32 noundef %2, i32 noundef %3, i32 noundef %4) #2 {
  %6 = and i32 %2, 255
  %7 = and i32 %3, 255
  %8 = and i32 %4, 255
  tail call void @loop_filter_v_8_8_c(ptr noundef %0, i64 noundef %1, i32 noundef %6, i32 noundef %7, i32 noundef %8)
  %9 = getelementptr inbounds nuw i8, ptr %0, i64 8
  %10 = ashr i32 %2, 8
  %11 = ashr i32 %3, 8
  %12 = ashr i32 %4, 8
  tail call void @loop_filter_v_8_8_c(ptr noundef nonnull %9, i64 noundef %1, i32 noundef %10, i32 noundef %11, i32 noundef %12)
  ret void
}